; Function Attrs: nounwind uwtable
define ptr @l___private_Init_Data_List_ToArray_0__Array_findSomeM_x3f_match__1_splitter___rarg(ptr noundef %0, ptr noundef %1, ptr noundef %2) #0 {
  %4 = ptrtoint ptr %0 to i64
  %5 = and i64 %4, 1
  %.not.i19 = icmp eq i64 %5, 0
  br i1 %.not.i19, label %9, label %6

6:                                                ; preds = %3
  %7 = lshr i64 %4, 1
  %8 = trunc i64 %7 to i32
  br label %lean_obj_tag.exit

9:                                                ; preds = %3
  %10 = getelementptr i8, ptr %0, i64 4
  %.val.i = load i32, ptr %10, align 4
  %11 = lshr i32 %.val.i, 24
  br label %lean_obj_tag.exit

lean_obj_tag.exit:                                ; preds = %6, %9
  %.0.i = phi i32 [ %8, %6 ], [ %11, %9 ]
  %12 = icmp eq i32 %.0.i, 0
  br i1 %12, label %13, label %24

13:                                               ; preds = %lean_obj_tag.exit
  %14 = ptrtoint ptr %1 to i64
  %15 = and i64 %14, 1
  %.not24 = icmp eq i64 %15, 0
  br i1 %.not24, label %16, label %lean_dec.exit14

16:                                               ; preds = %13
  %17 = load i32, ptr %1, align 4, !tbaa !5
  %18 = icmp sgt i32 %17, 1
  br i1 %18, label %19, label %21, !prof !10

19:                                               ; preds = %16
  %20 = add nsw i32 %17, -1
  store i32 %20, ptr %1, align 4, !tbaa !5
  br label %lean_dec.exit14

21:                                               ; preds = %16
  %.not.i = icmp eq i32 %17, 0
  br i1 %.not.i, label %lean_dec.exit14, label %22

22:                                               ; preds = %21
  tail call void @lean_dec_ref_cold(ptr noundef nonnull %1) #4
  br label %lean_dec.exit14

lean_dec.exit14:                                  ; preds = %22, %21, %19, %13
  %23 = tail call ptr @lean_apply_2(ptr noundef %2, ptr noundef %0, ptr noundef nonnull inttoptr (i64 1 to ptr)) #4
  br label %51

24:                                               ; preds = %lean_obj_tag.exit
  %25 = ptrtoint ptr %2 to i64
  %26 = and i64 %25, 1
  %.not = icmp eq i64 %26, 0
  br i1 %.not, label %27, label %lean_dec.exit13

27:                                               ; preds = %24
  %28 = load i32, ptr %2, align 4, !tbaa !5
  %29 = icmp sgt i32 %28, 1
  br i1 %29, label %30, label %32, !prof !10

30:                                               ; preds = %27
  %31 = add nsw i32 %28, -1
  store i32 %31, ptr %2, align 4, !tbaa !5
  br label %lean_dec.exit13

32:                                               ; preds = %27
  %.not.i15 = icmp eq i32 %28, 0
  br i1 %.not.i15, label %lean_dec.exit13, label %33

33:                                               ; preds = %32
  tail call void @lean_dec_ref_cold(ptr noundef nonnull %2) #4
  br label %lean_dec.exit13

lean_dec.exit13:                                  ; preds = %33, %32, %30, %24
  %34 = getelementptr i8, ptr %0, i64 8
  %.val = load ptr, ptr %34, align 8, !tbaa !11
  %35 = ptrtoint ptr %.val to i64
  %36 = and i64 %35, 1
  %.not22 = icmp eq i64 %36, 0
  br i1 %.not22, label %37, label %lean_inc.exit

37:                                               ; preds = %lean_dec.exit13
  %.val.i20 = load i32, ptr %.val, align 4, !tbaa !5
  %38 = icmp sgt i32 %.val.i20, 0
  br i1 %38, label %39, label %41, !prof !10

39:                                               ; preds = %37
  %40 = add nuw i32 %.val.i20, 1
  store i32 %40, ptr %.val, align 4, !tbaa !5
  br label %lean_inc.exit

41:                                               ; preds = %37
  %.not.i21 = icmp eq i32 %.val.i20, 0
  br i1 %.not.i21, label %lean_inc.exit, label %42

42:                                               ; preds = %41
  tail call void @lean_inc_ref_cold(ptr noundef nonnull %.val) #4
  br label %lean_inc.exit

lean_inc.exit:                                    ; preds = %42, %41, %39, %lean_dec.exit13
  br i1 %.not.i19, label %43, label %lean_dec.exit

43:                                               ; preds = %lean_inc.exit
  %44 = load i32, ptr %0, align 4, !tbaa !5
  %45 = icmp sgt i32 %44, 1
  br i1 %45, label %46, label %48, !prof !10

46:                                               ; preds = %43
  %47 = add nsw i32 %44, -1
  store i32 %47, ptr %0, align 4, !tbaa !5
  br label %lean_dec.exit

48:                                               ; preds = %43
  %.not.i17 = icmp eq i32 %44, 0
  br i1 %.not.i17, label %lean_dec.exit, label %49

49:                                               ; preds = %48
  tail call void @lean_dec_ref_cold(ptr noundef nonnull %0) #4
  br label %lean_dec.exit

lean_dec.exit:                                    ; preds = %49, %48, %46, %lean_inc.exit
  %50 = tail call ptr @lean_apply_1(ptr noundef %1, ptr noundef %.val) #4
  br label %51

51:                                               ; preds = %lean_dec.exit, %lean_dec.exit14
  %.0 = phi ptr [ %23, %lean_dec.exit14 ], [ %50, %lean_dec.exit ]
  ret ptr %.0
}